target datalayout = "e-m:e-p270:32:32-p271:32:32-p272:64:64-i64:64-i128:128-f80:128-n8:16:32:64-S128"
target triple = "x86_64-pc-linux-gnu"

%struct.DdManager = type { %struct.DdNode, ptr, ptr, ptr, ptr, ptr, ptr, ptr, i32, i32, double, double, double, i32, i32, i32, i32, i32, i32, ptr, ptr, %struct.DdSubtable, i32, i32, i32, i32, i32, i32, i32, double, i32, i32, i32, ptr, i64, double, i32, ptr, ptr, ptr, ptr, ptr, ptr, ptr, i32, ptr, ptr, ptr, ptr, ptr, ptr, i32, i32, i32, double, i32, i32, i32, i32, double, double, i32, i32, i32, i32, i32, i32, i32, i32, i32, ptr, ptr, i32, i32, i32, i32, i32, i32, ptr, ptr, ptr, ptr, ptr, ptr, ptr, ptr, i32, i64, i64, i64, i32, i64, i64, double, double, double, double, double, double, i32, ptr, ptr, i64 }
%struct.DdNode = type { i32, i32, ptr, %union.anon, i64 }
%union.anon = type { %struct.DdChildren }
%struct.DdChildren = type { ptr, ptr }
%struct.DdSubtable = type { ptr, i32, i32, i32, i32, i32, i32, i32, i32, i32, i32, i32 }

@empty = internal global ptr null, align 8

; Function Attrs: nounwind uwtable
define i32 @cuddZddSymmCheck(ptr noundef %0, i32 noundef %1, i32 noundef %2) #0 {
  %4 = alloca i32, align 4
  %5 = alloca ptr, align 8
  %6 = alloca i32, align 4
  %7 = alloca i32, align 4
  %8 = alloca i32, align 4
  %9 = alloca ptr, align 8
  %10 = alloca ptr, align 8
  %11 = alloca ptr, align 8
  %12 = alloca ptr, align 8
  %13 = alloca ptr, align 8
  %14 = alloca ptr, align 8
  %15 = alloca ptr, align 8
  %16 = alloca i32, align 4
  %17 = alloca i32, align 4
  %18 = alloca i32, align 4
  %19 = alloca i32, align 4
  %20 = alloca i32, align 4
  %21 = alloca i32, align 4
  %22 = alloca i32, align 4
  store ptr %0, ptr %5, align 8, !tbaa !3
  store i32 %1, ptr %6, align 4, !tbaa !8
  store i32 %2, ptr %7, align 4, !tbaa !8
  call void @llvm.lifetime.start.p0(i64 4, ptr %8) #5
  call void @llvm.lifetime.start.p0(i64 8, ptr %9) #5
  call void @llvm.lifetime.start.p0(i64 8, ptr %10) #5
  call void @llvm.lifetime.start.p0(i64 8, ptr %11) #5
  call void @llvm.lifetime.start.p0(i64 8, ptr %12) #5
  call void @llvm.lifetime.start.p0(i64 8, ptr %13) #5
  call void @llvm.lifetime.start.p0(i64 8, ptr %14) #5
  call void @llvm.lifetime.start.p0(i64 8, ptr %15) #5
  call void @llvm.lifetime.start.p0(i64 4, ptr %16) #5
  call void @llvm.lifetime.start.p0(i64 4, ptr %17) #5
  store i32 1, ptr %17, align 4, !tbaa !8
  call void @llvm.lifetime.start.p0(i64 4, ptr %18) #5
  store i32 1, ptr %18, align 4, !tbaa !8
  call void @llvm.lifetime.start.p0(i64 4, ptr %19) #5
  store i32 0, ptr %19, align 4, !tbaa !8
  call void @llvm.lifetime.start.p0(i64 4, ptr %20) #5
  store i32 0, ptr %20, align 4, !tbaa !8
  call void @llvm.lifetime.start.p0(i64 4, ptr %21) #5
  %23 = load ptr, ptr %5, align 8, !tbaa !3
  %24 = getelementptr inbounds nuw %struct.DdManager, ptr %23, i32 0, i32 2
  %25 = load ptr, ptr %24, align 8, !tbaa !33
  store ptr %25, ptr @empty, align 8, !tbaa !34
  %26 = load ptr, ptr %5, align 8, !tbaa !3
  %27 = getelementptr inbounds nuw %struct.DdManager, ptr %26, i32 0, i32 40
  %28 = load ptr, ptr %27, align 8, !tbaa !29
  %29 = load i32, ptr %7, align 4, !tbaa !8
  %30 = sext i32 %29 to i64
  %31 = getelementptr inbounds i32, ptr %28, i64 %30
  %32 = load i32, ptr %31, align 4, !tbaa !8
  store i32 %32, ptr %16, align 4, !tbaa !8
  %33 = load ptr, ptr %5, align 8, !tbaa !3
  %34 = getelementptr inbounds nuw %struct.DdManager, ptr %33, i32 0, i32 20
  %35 = load ptr, ptr %34, align 8, !tbaa !10
  %36 = load i32, ptr %6, align 4, !tbaa !8
  %37 = sext i32 %36 to i64
  %38 = getelementptr inbounds %struct.DdSubtable, ptr %35, i64 %37
  %39 = getelementptr inbounds nuw %struct.DdSubtable, ptr %38, i32 0, i32 2
  %40 = load i32, ptr %39, align 4, !tbaa !35
  %41 = sub i32 %40, 1
  store i32 %41, ptr %8, align 4, !tbaa !8
  br label %42

42:                                               ; preds = %148, %3
  %43 = load i32, ptr %8, align 4, !tbaa !8
  %44 = icmp sge i32 %43, 0
  br i1 %44, label %45, label %151

45:                                               ; preds = %42
  %46 = load ptr, ptr %5, align 8, !tbaa !3
  %47 = getelementptr inbounds nuw %struct.DdManager, ptr %46, i32 0, i32 20
  %48 = load ptr, ptr %47, align 8, !tbaa !10
  %49 = load i32, ptr %6, align 4, !tbaa !8
  %50 = sext i32 %49 to i64
  %51 = getelementptr inbounds %struct.DdSubtable, ptr %48, i64 %50
  %52 = getelementptr inbounds nuw %struct.DdSubtable, ptr %51, i32 0, i32 0
  %53 = load ptr, ptr %52, align 8, !tbaa !36
  %54 = load i32, ptr %8, align 4, !tbaa !8
  %55 = sext i32 %54 to i64
  %56 = getelementptr inbounds ptr, ptr %53, i64 %55
  %57 = load ptr, ptr %56, align 8, !tbaa !34
  store ptr %57, ptr %9, align 8, !tbaa !34
  br label %58

58:                                               ; preds = %143, %45
  %59 = load ptr, ptr %9, align 8, !tbaa !34
  %60 = icmp ne ptr %59, null
  br i1 %60, label %61, label %147

61:                                               ; preds = %58
  %62 = load ptr, ptr %9, align 8, !tbaa !34
  %63 = getelementptr inbounds nuw %struct.DdNode, ptr %62, i32 0, i32 3
  %64 = getelementptr inbounds nuw %struct.DdChildren, ptr %63, i32 0, i32 0
  %65 = load ptr, ptr %64, align 8, !tbaa !37
  store ptr %65, ptr %11, align 8, !tbaa !34
  %66 = load ptr, ptr %9, align 8, !tbaa !34
  %67 = getelementptr inbounds nuw %struct.DdNode, ptr %66, i32 0, i32 3
  %68 = getelementptr inbounds nuw %struct.DdChildren, ptr %67, i32 0, i32 1
  %69 = load ptr, ptr %68, align 8, !tbaa !37
  store ptr %69, ptr %10, align 8, !tbaa !34
  %70 = load ptr, ptr %11, align 8, !tbaa !34
  %71 = getelementptr inbounds nuw %struct.DdNode, ptr %70, i32 0, i32 0
  %72 = load i32, ptr %71, align 8, !tbaa !38
  %73 = load i32, ptr %16, align 4, !tbaa !8
  %74 = icmp eq i32 %72, %73
  br i1 %74, label %75, label %91

75:                                               ; preds = %61
  %76 = load ptr, ptr %11, align 8, !tbaa !34
  %77 = getelementptr inbounds nuw %struct.DdNode, ptr %76, i32 0, i32 3
  %78 = getelementptr inbounds nuw %struct.DdChildren, ptr %77, i32 0, i32 0
  %79 = load ptr, ptr %78, align 8, !tbaa !37
  store ptr %79, ptr %14, align 8, !tbaa !34
  %80 = load ptr, ptr %11, align 8, !tbaa !34
  %81 = getelementptr inbounds nuw %struct.DdNode, ptr %80, i32 0, i32 3
  %82 = getelementptr inbounds nuw %struct.DdChildren, ptr %81, i32 0, i32 1
  %83 = load ptr, ptr %82, align 8, !tbaa !37
  store ptr %83, ptr %15, align 8, !tbaa !34
  %84 = load ptr, ptr %15, align 8, !tbaa !34
  %85 = load ptr, ptr @empty, align 8, !tbaa !34
  %86 = icmp ne ptr %84, %85
  br i1 %86, label %87, label %90

87:                                               ; preds = %75
  %88 = load i32, ptr %19, align 4, !tbaa !8
  %89 = add nsw i32 %88, 1
  store i32 %89, ptr %19, align 4, !tbaa !8
  br label %90

90:                                               ; preds = %87, %75
  br label %101

91:                                               ; preds = %61
  %92 = load ptr, ptr %10, align 8, !tbaa !34
  %93 = getelementptr inbounds nuw %struct.DdNode, ptr %92, i32 0, i32 0
  %94 = load i32, ptr %93, align 8, !tbaa !38
  %95 = load i32, ptr %16, align 4, !tbaa !8
  %96 = icmp ne i32 %94, %95
  br i1 %96, label %97, label %98

97:                                               ; preds = %91
  store i32 0, ptr %4, align 4
  store i32 1, ptr %22, align 4
  br label %207

98:                                               ; preds = %91
  %99 = load ptr, ptr @empty, align 8, !tbaa !34
  store ptr %99, ptr %14, align 8, !tbaa !34
  %100 = load ptr, ptr %11, align 8, !tbaa !34
  store ptr %100, ptr %15, align 8, !tbaa !34
  br label %101

101:                                              ; preds = %98, %90
  %102 = load ptr, ptr %10, align 8, !tbaa !34
  %103 = getelementptr inbounds nuw %struct.DdNode, ptr %102, i32 0, i32 0
  %104 = load i32, ptr %103, align 8, !tbaa !38
  %105 = load i32, ptr %16, align 4, !tbaa !8
  %106 = icmp eq i32 %104, %105
  br i1 %106, label %107, label %123

107:                                              ; preds = %101
  %108 = load ptr, ptr %10, align 8, !tbaa !34
  %109 = getelementptr inbounds nuw %struct.DdNode, ptr %108, i32 0, i32 3
  %110 = getelementptr inbounds nuw %struct.DdChildren, ptr %109, i32 0, i32 0
  %111 = load ptr, ptr %110, align 8, !tbaa !37
  store ptr %111, ptr %12, align 8, !tbaa !34
  %112 = load ptr, ptr %10, align 8, !tbaa !34
  %113 = getelementptr inbounds nuw %struct.DdNode, ptr %112, i32 0, i32 3
  %114 = getelementptr inbounds nuw %struct.DdChildren, ptr %113, i32 0, i32 1
  %115 = load ptr, ptr %114, align 8, !tbaa !37
  store ptr %115, ptr %13, align 8, !tbaa !34
  %116 = load ptr, ptr %13, align 8, !tbaa !34
  %117 = load ptr, ptr @empty, align 8, !tbaa !34
  %118 = icmp ne ptr %116, %117
  br i1 %118, label %119, label %122

119:                                              ; preds = %107
  %120 = load i32, ptr %19, align 4, !tbaa !8
  %121 = add nsw i32 %120, 1
  store i32 %121, ptr %19, align 4, !tbaa !8
  br label %122

122:                                              ; preds = %119, %107
  br label %126

123:                                              ; preds = %101
  %124 = load ptr, ptr @empty, align 8, !tbaa !34
  store ptr %124, ptr %12, align 8, !tbaa !34
  %125 = load ptr, ptr %10, align 8, !tbaa !34
  store ptr %125, ptr %13, align 8, !tbaa !34
  br label %126

126:                                              ; preds = %123, %122
  %127 = load ptr, ptr %12, align 8, !tbaa !34
  %128 = load ptr, ptr %15, align 8, !tbaa !34
  %129 = icmp ne ptr %127, %128
  br i1 %129, label %130, label %131

130:                                              ; preds = %126
  store i32 0, ptr %17, align 4, !tbaa !8
  br label %131

131:                                              ; preds = %130, %126
  %132 = load ptr, ptr %14, align 8, !tbaa !34
  %133 = load ptr, ptr %13, align 8, !tbaa !34
  %134 = icmp ne ptr %132, %133
  br i1 %134, label %135, label %136

135:                                              ; preds = %131
  store i32 0, ptr %18, align 4, !tbaa !8
  br label %136

136:                                              ; preds = %135, %131
  %137 = load i32, ptr %17, align 4, !tbaa !8
  %138 = icmp eq i32 %137, 0
  br i1 %138, label %139, label %143

139:                                              ; preds = %136
  %140 = load i32, ptr %18, align 4, !tbaa !8
  %141 = icmp eq i32 %140, 0
  br i1 %141, label %142, label %143

142:                                              ; preds = %139
  store i32 0, ptr %4, align 4
  store i32 1, ptr %22, align 4
  br label %207

143:                                              ; preds = %139, %136
  %144 = load ptr, ptr %9, align 8, !tbaa !34
  %145 = getelementptr inbounds nuw %struct.DdNode, ptr %144, i32 0, i32 2
  %146 = load ptr, ptr %145, align 8, !tbaa !39
  store ptr %146, ptr %9, align 8, !tbaa !34
  br label %58, !llvm.loop !40

147:                                              ; preds = %58
  br label %148

148:                                              ; preds = %147
  %149 = load i32, ptr %8, align 4, !tbaa !8
  %150 = add nsw i32 %149, -1
  store i32 %150, ptr %8, align 4, !tbaa !8
  br label %42, !llvm.loop !41

151:                                              ; preds = %42
  %152 = load ptr, ptr %5, align 8, !tbaa !3
  %153 = getelementptr inbounds nuw %struct.DdManager, ptr %152, i32 0, i32 20
  %154 = load ptr, ptr %153, align 8, !tbaa !10
  %155 = load i32, ptr %7, align 4, !tbaa !8
  %156 = sext i32 %155 to i64
  %157 = getelementptr inbounds %struct.DdSubtable, ptr %154, i64 %156
  %158 = getelementptr inbounds nuw %struct.DdSubtable, ptr %157, i32 0, i32 2
  %159 = load i32, ptr %158, align 4, !tbaa !35
  %160 = sub i32 %159, 1
  store i32 %160, ptr %8, align 4, !tbaa !8
  br label %161

161:                                              ; preds = %198, %151
  %162 = load i32, ptr %8, align 4, !tbaa !8
  %163 = icmp sge i32 %162, 0
  br i1 %163, label %164, label %201

164:                                              ; preds = %161
  %165 = load ptr, ptr %5, align 8, !tbaa !3
  %166 = getelementptr inbounds nuw %struct.DdManager, ptr %165, i32 0, i32 20
  %167 = load ptr, ptr %166, align 8, !tbaa !10
  %168 = load i32, ptr %7, align 4, !tbaa !8
  %169 = sext i32 %168 to i64
  %170 = getelementptr inbounds %struct.DdSubtable, ptr %167, i64 %169
  %171 = getelementptr inbounds nuw %struct.DdSubtable, ptr %170, i32 0, i32 0
  %172 = load ptr, ptr %171, align 8, !tbaa !36
  %173 = load i32, ptr %8, align 4, !tbaa !8
  %174 = sext i32 %173 to i64
  %175 = getelementptr inbounds ptr, ptr %172, i64 %174
  %176 = load ptr, ptr %175, align 8, !tbaa !34
  store ptr %176, ptr %9, align 8, !tbaa !34
  br label %177

177:                                              ; preds = %193, %164
  %178 = load ptr, ptr %9, align 8, !tbaa !34
  %179 = icmp ne ptr %178, null
  br i1 %179, label %180, label %197

180:                                              ; preds = %177
  %181 = load ptr, ptr %9, align 8, !tbaa !34
  %182 = getelementptr inbounds nuw %struct.DdNode, ptr %181, i32 0, i32 3
  %183 = getelementptr inbounds nuw %struct.DdChildren, ptr %182, i32 0, i32 1
  %184 = load ptr, ptr %183, align 8, !tbaa !37
  %185 = load ptr, ptr @empty, align 8, !tbaa !34
  %186 = icmp ne ptr %184, %185
  br i1 %186, label %187, label %193

187:                                              ; preds = %180
  %188 = load ptr, ptr %9, align 8, !tbaa !34
  %189 = getelementptr inbounds nuw %struct.DdNode, ptr %188, i32 0, i32 1
  %190 = load i32, ptr %189, align 4, !tbaa !42
  %191 = load i32, ptr %20, align 4, !tbaa !8
  %192 = add i32 %191, %190
  store i32 %192, ptr %20, align 4, !tbaa !8
  br label %193

193:                                              ; preds = %187, %180
  %194 = load ptr, ptr %9, align 8, !tbaa !34
  %195 = getelementptr inbounds nuw %struct.DdNode, ptr %194, i32 0, i32 2
  %196 = load ptr, ptr %195, align 8, !tbaa !39
  store ptr %196, ptr %9, align 8, !tbaa !34
  br label %177, !llvm.loop !43

197:                                              ; preds = %177
  br label %198

198:                                              ; preds = %197
  %199 = load i32, ptr %8, align 4, !tbaa !8
  %200 = add nsw i32 %199, -1
  store i32 %200, ptr %8, align 4, !tbaa !8
  br label %161, !llvm.loop !44

201:                                              ; preds = %161
  %202 = load i32, ptr %19, align 4, !tbaa !8
  %203 = load i32, ptr %20, align 4, !tbaa !8
  %204 = icmp eq i32 %202, %203
  %205 = zext i1 %204 to i32
  store i32 %205, ptr %21, align 4, !tbaa !8
  %206 = load i32, ptr %21, align 4, !tbaa !8
  store i32 %206, ptr %4, align 4
  store i32 1, ptr %22, align 4
  br label %207

207:                                              ; preds = %201, %142, %97
  call void @llvm.lifetime.end.p0(i64 4, ptr %21) #5
  call void @llvm.lifetime.end.p0(i64 4, ptr %20) #5
  call void @llvm.lifetime.end.p0(i64 4, ptr %19) #5
  call void @llvm.lifetime.end.p0(i64 4, ptr %18) #5
  call void @llvm.lifetime.end.p0(i64 4, ptr %17) #5
  call void @llvm.lifetime.end.p0(i64 4, ptr %16) #5
  call void @llvm.lifetime.end.p0(i64 8, ptr %15) #5
  call void @llvm.lifetime.end.p0(i64 8, ptr %14) #5
  call void @llvm.lifetime.end.p0(i64 8, ptr %13) #5
  call void @llvm.lifetime.end.p0(i64 8, ptr %12) #5
  call void @llvm.lifetime.end.p0(i64 8, ptr %11) #5
  call void @llvm.lifetime.end.p0(i64 8, ptr %10) #5
  call void @llvm.lifetime.end.p0(i64 8, ptr %9) #5
  call void @llvm.lifetime.end.p0(i64 4, ptr %8) #5
  %208 = load i32, ptr %4, align 4
  ret i32 %208
}