; Function Attrs: nofree norecurse nosync nounwind memory(readwrite, argmem: read, inaccessiblemem: none) uwtable
define range(i32 0, 2) i32 @cuddZddSymmCheck(ptr noundef readonly captures(none) %0, i32 noundef %1, i32 noundef %2) local_unnamed_addr #3 {
  %4 = getelementptr inbounds nuw i8, ptr %0, i64 48
  %5 = load ptr, ptr %4, align 8, !tbaa !31
  %6 = getelementptr inbounds nuw i8, ptr %0, i64 336
  %7 = load ptr, ptr %6, align 8, !tbaa !26
  %8 = sext i32 %2 to i64
  %9 = getelementptr inbounds i32, ptr %7, i64 %8
  %10 = load i32, ptr %9, align 4, !tbaa !27
  %11 = getelementptr inbounds nuw i8, ptr %0, i64 160
  %12 = load ptr, ptr %11, align 8, !tbaa !3
  %13 = sext i32 %1 to i64
  %14 = getelementptr inbounds %struct.DdSubtable, ptr %12, i64 %13, i32 2
  %15 = load i32, ptr %14, align 4, !tbaa !32
  %.06298 = add i32 %15, -1
  %16 = icmp sgt i32 %.06298, -1
  br i1 %16, label %.lr.ph103, label %._crit_edge

.lr.ph103:                                        ; preds = %3
  %17 = getelementptr inbounds %struct.DdSubtable, ptr %12, i64 %13
  %18 = load ptr, ptr %17, align 8, !tbaa !33
  %19 = zext nneg i32 %.06298 to i64
  br label %21

.loopexit84:                                      ; preds = %23, %21
  %.160.lcssa = phi i32 [ %.05999, %21 ], [ %spec.select83, %23 ]
  %.157.lcssa = phi i32 [ %.056100, %21 ], [ %.258, %23 ]
  %.154.lcssa = phi i32 [ %.053101, %21 ], [ %.3, %23 ]
  %indvars.iv.next = add nsw i64 %indvars.iv, -1
  %20 = icmp sgt i64 %indvars.iv, 0
  br i1 %20, label %21, label %._crit_edge, !llvm.loop !34

21:                                               ; preds = %.lr.ph103, %.loopexit84
  %indvars.iv = phi i64 [ %19, %.lr.ph103 ], [ %indvars.iv.next, %.loopexit84 ]
  %.053101 = phi i32 [ 0, %.lr.ph103 ], [ %.154.lcssa, %.loopexit84 ]
  %.056100 = phi i32 [ 1, %.lr.ph103 ], [ %.157.lcssa, %.loopexit84 ]
  %.05999 = phi i32 [ 1, %.lr.ph103 ], [ %.160.lcssa, %.loopexit84 ]
  %22 = getelementptr inbounds nuw ptr, ptr %18, i64 %indvars.iv
  %.06890 = load ptr, ptr %22, align 8, !tbaa !35
  %.not7691 = icmp eq ptr %.06890, null
  br i1 %.not7691, label %.loopexit84, label %.lr.ph

23:                                               ; preds = %45
  %24 = getelementptr inbounds nuw i8, ptr %.06895, i64 8
  %.068 = load ptr, ptr %24, align 8, !tbaa !35
  %.not76 = icmp eq ptr %.068, null
  br i1 %.not76, label %.loopexit84, label %.lr.ph, !llvm.loop !36

.lr.ph:                                           ; preds = %21, %23
  %.06895 = phi ptr [ %.068, %23 ], [ %.06890, %21 ]
  %.15494 = phi i32 [ %.3, %23 ], [ %.053101, %21 ]
  %.15793 = phi i32 [ %.258, %23 ], [ %.056100, %21 ]
  %.16092 = phi i32 [ %spec.select83, %23 ], [ %.05999, %21 ]
  %25 = getelementptr inbounds nuw i8, ptr %.06895, i64 16
  %26 = load ptr, ptr %25, align 8, !tbaa !37
  %27 = getelementptr inbounds nuw i8, ptr %.06895, i64 24
  %28 = load ptr, ptr %27, align 8, !tbaa !37
  %29 = load i32, ptr %26, align 8, !tbaa !38
  %30 = icmp eq i32 %29, %10
  br i1 %30, label %33, label %31

31:                                               ; preds = %.lr.ph
  %32 = load i32, ptr %28, align 8, !tbaa !38
  %.not77 = icmp eq i32 %32, %10
  br i1 %.not77, label %.thread, label %.loopexit85

33:                                               ; preds = %.lr.ph
  %34 = getelementptr inbounds nuw i8, ptr %26, i64 16
  %35 = load ptr, ptr %34, align 8, !tbaa !37
  %36 = getelementptr inbounds nuw i8, ptr %26, i64 24
  %37 = load ptr, ptr %36, align 8, !tbaa !37
  %.not78 = icmp ne ptr %37, %5
  %38 = zext i1 %.not78 to i32
  %spec.select = add nsw i32 %.15494, %38
  %.pre = load i32, ptr %28, align 8, !tbaa !38
  %39 = icmp eq i32 %.pre, %10
  br i1 %39, label %.thread, label %45

.thread:                                          ; preds = %31, %33
  %.255130 = phi i32 [ %spec.select, %33 ], [ %.15494, %31 ]
  %.064129 = phi ptr [ %37, %33 ], [ %26, %31 ]
  %.065127 = phi ptr [ %35, %33 ], [ %5, %31 ]
  %40 = getelementptr inbounds nuw i8, ptr %28, i64 16
  %41 = load ptr, ptr %40, align 8, !tbaa !37
  %42 = getelementptr inbounds nuw i8, ptr %28, i64 24
  %43 = load ptr, ptr %42, align 8, !tbaa !37
  %.not79 = icmp ne ptr %43, %5
  %44 = zext i1 %.not79 to i32
  %spec.select82 = add nsw i32 %.255130, %44
  br label %45

45:                                               ; preds = %33, %.thread
  %.064128 = phi ptr [ %.064129, %.thread ], [ %37, %33 ]
  %.065126 = phi ptr [ %.065127, %.thread ], [ %35, %33 ]
  %.067 = phi ptr [ %41, %.thread ], [ %5, %33 ]
  %.066 = phi ptr [ %43, %.thread ], [ %28, %33 ]
  %.3 = phi i32 [ %spec.select82, %.thread ], [ %spec.select, %33 ]
  %.not80 = icmp eq ptr %.067, %.064128
  %spec.select83 = select i1 %.not80, i32 %.16092, i32 0
  %.not81 = icmp eq ptr %.065126, %.066
  %.258 = select i1 %.not81, i32 %.15793, i32 0
  %46 = icmp eq i32 %spec.select83, 0
  %47 = icmp eq i32 %.258, 0
  %or.cond = select i1 %46, i1 %47, i1 false
  br i1 %or.cond, label %.loopexit85, label %23

._crit_edge:                                      ; preds = %.loopexit84, %3
  %.053.lcssa = phi i32 [ 0, %3 ], [ %.154.lcssa, %.loopexit84 ]
  %48 = getelementptr inbounds %struct.DdSubtable, ptr %12, i64 %8, i32 2
  %49 = load i32, ptr %48, align 4, !tbaa !32
  %.163112 = add i32 %49, -1
  %50 = icmp sgt i32 %.163112, -1
  br i1 %50, label %.lr.ph116, label %._crit_edge117

.lr.ph116:                                        ; preds = %._crit_edge
  %51 = getelementptr inbounds %struct.DdSubtable, ptr %12, i64 %8
  %52 = load ptr, ptr %51, align 8, !tbaa !33
  %53 = zext nneg i32 %.163112 to i64
  br label %55

.loopexit:                                        ; preds = %63, %55
  %.1.lcssa = phi i32 [ %.052113, %55 ], [ %.2, %63 ]
  %indvars.iv.next121 = add nsw i64 %indvars.iv120, -1
  %54 = icmp sgt i64 %indvars.iv120, 0
  br i1 %54, label %55, label %._crit_edge117, !llvm.loop !39

55:                                               ; preds = %.lr.ph116, %.loopexit
  %indvars.iv120 = phi i64 [ %53, %.lr.ph116 ], [ %indvars.iv.next121, %.loopexit ]
  %.052113 = phi i32 [ 0, %.lr.ph116 ], [ %.1.lcssa, %.loopexit ]
  %56 = getelementptr inbounds nuw ptr, ptr %52, i64 %indvars.iv120
  %.169105 = load ptr, ptr %56, align 8, !tbaa !35
  %.not106 = icmp eq ptr %.169105, null
  br i1 %.not106, label %.loopexit, label %.lr.ph110

.lr.ph110:                                        ; preds = %55, %63
  %.169108 = phi ptr [ %.169, %63 ], [ %.169105, %55 ]
  %.1107 = phi i32 [ %.2, %63 ], [ %.052113, %55 ]
  %57 = getelementptr inbounds nuw i8, ptr %.169108, i64 24
  %58 = load ptr, ptr %57, align 8, !tbaa !37
  %.not75 = icmp eq ptr %58, %5
  br i1 %.not75, label %63, label %59

59:                                               ; preds = %.lr.ph110
  %60 = getelementptr inbounds nuw i8, ptr %.169108, i64 4
  %61 = load i32, ptr %60, align 4, !tbaa !40
  %62 = add i32 %61, %.1107
  br label %63

63:                                               ; preds = %59, %.lr.ph110
  %.2 = phi i32 [ %62, %59 ], [ %.1107, %.lr.ph110 ]
  %64 = getelementptr inbounds nuw i8, ptr %.169108, i64 8
  %.169 = load ptr, ptr %64, align 8, !tbaa !35
  %.not = icmp eq ptr %.169, null
  br i1 %.not, label %.loopexit, label %.lr.ph110, !llvm.loop !41

._crit_edge117:                                   ; preds = %.loopexit, %._crit_edge
  %.052.lcssa = phi i32 [ 0, %._crit_edge ], [ %.1.lcssa, %.loopexit ]
  %65 = icmp eq i32 %.053.lcssa, %.052.lcssa
  %66 = zext i1 %65 to i32
  br label %.loopexit85

.loopexit85:                                      ; preds = %45, %31, %._crit_edge117
  %.0 = phi i32 [ %66, %._crit_edge117 ], [ 0, %31 ], [ 0, %45 ]
  ret i32 %.0
}